target datalayout = "e-m:e-p270:32:32-p271:32:32-p272:64:64-i64:64-i128:128-f80:128-n8:16:32:64-S128"
target triple = "x86_64-pc-linux-gnu"

%class.JfrStackTraceMark = type { ptr, i64, i64 }
%class.Thread = type { %class.ThreadShadow.base, i64, [43 x i64], ptr, ptr, i32, ptr, i64, i64, %class.ThreadLocalAllocBuffer, i64, %class.ThreadHeapSampler, %class.ThreadStatisticalInfo, %class.JfrThreadLocal, ptr, ptr, ptr, ptr, ptr, ptr, i64, i32, i32, ptr, i32, i32, i32, i32, i8, ptr }
%class.ThreadShadow.base = type <{ ptr, ptr, ptr, i32 }>
%class.ThreadLocalAllocBuffer = type <{ ptr, ptr, ptr, ptr, ptr, i64, i64, i64, i64, i32, i32, i32, i32, i64, %class.AdaptiveWeightedAverage, [4 x i8] }>
%class.AdaptiveWeightedAverage = type { float, i32, i32, i8, float }
%class.ThreadHeapSampler = type { i64 }
%class.ThreadStatisticalInfo = type { i64, i64 }
%class.JfrThreadLocal = type <{ ptr, ptr, ptr, ptr, ptr, ptr, ptr, ptr, ptr, ptr, %class.RefCountHandle, i64, i64, i64, i64, i64, i64, i64, i64, i64, i64, i64, i32, i32, i32, i16, i8, i8, i8, i8, i8, [5 x i8] }>
%class.RefCountHandle = type { ptr }

; Function Attrs: mustprogress nounwind uwtable
define linkonce_odr hidden void @_ZN14JfrThreadLocal24clear_cached_stack_traceEv(ptr noundef nonnull align 8 dereferenceable(195) %0) #1 comdat align 2 {
  %2 = alloca ptr, align 8
  store ptr %0, ptr %2, align 8
  %3 = load ptr, ptr %2, align 8
  %4 = getelementptr inbounds %class.JfrThreadLocal, ptr %3, i32 0, i32 15
  store i64 -1, ptr %4, align 8
  %5 = getelementptr inbounds %class.JfrThreadLocal, ptr %3, i32 0, i32 16
  store i64 0, ptr %5, align 8
  ret void
}

; Function Attrs: mustprogress nounwind uwtable
define linkonce_odr hidden void @_ZN14JfrThreadLocal25set_cached_stack_trace_idEmm(ptr noundef nonnull align 8 dereferenceable(195) %0, i64 noundef %1, i64 noundef %2) #1 comdat align 2 {
  %4 = alloca ptr, align 8
  %5 = alloca i64, align 8
  %6 = alloca i64, align 8
  store ptr %0, ptr %4, align 8
  store i64 %1, ptr %5, align 8
  store i64 %2, ptr %6, align 8
  %7 = load ptr, ptr %4, align 8
  %8 = load i64, ptr %5, align 8
  %9 = getelementptr inbounds %class.JfrThreadLocal, ptr %7, i32 0, i32 15
  store i64 %8, ptr %9, align 8
  %10 = load i64, ptr %6, align 8
  %11 = getelementptr inbounds %class.JfrThreadLocal, ptr %7, i32 0, i32 16
  store i64 %10, ptr %11, align 8
  ret void
}

; Function Attrs: mustprogress nounwind uwtable
define linkonce_odr hidden noundef ptr @_ZNK6Thread16jfr_thread_localEv(ptr noundef nonnull align 8 dereferenceable(888) %0) #1 comdat align 2 {
  %2 = alloca ptr, align 8
  store ptr %0, ptr %2, align 8
  %3 = load ptr, ptr %2, align 8
  %4 = getelementptr inbounds %class.Thread, ptr %3, i32 0, i32 13
  ret ptr %4
}

; Function Attrs: mustprogress nounwind uwtable
define hidden void @_ZN17JfrStackTraceMarkD2Ev(ptr noundef nonnull align 8 dereferenceable(24) %0) unnamed_addr #1 align 2 {
  %2 = alloca ptr, align 8
  store ptr %0, ptr %2, align 8
  %3 = load ptr, ptr %2, align 8
  %4 = getelementptr inbounds %class.JfrStackTraceMark, ptr %3, i32 0, i32 1
  %5 = load i64, ptr %4, align 8
  %6 = icmp ne i64 %5, 0
  br i1 %6, label %7, label %15

7:                                                ; preds = %1
  %8 = getelementptr inbounds %class.JfrStackTraceMark, ptr %3, i32 0, i32 0
  %9 = load ptr, ptr %8, align 8
  %10 = call noundef ptr @_ZNK6Thread16jfr_thread_localEv(ptr noundef nonnull align 8 dereferenceable(888) %9)
  %11 = getelementptr inbounds %class.JfrStackTraceMark, ptr %3, i32 0, i32 1
  %12 = load i64, ptr %11, align 8
  %13 = getelementptr inbounds %class.JfrStackTraceMark, ptr %3, i32 0, i32 2
  %14 = load i64, ptr %13, align 8
  call void @_ZN14JfrThreadLocal25set_cached_stack_trace_idEmm(ptr noundef nonnull align 8 dereferenceable(195) %10, i64 noundef %12, i64 noundef %14)
  br label %24

15:                                               ; preds = %1
  %16 = getelementptr inbounds %class.JfrStackTraceMark, ptr %3, i32 0, i32 0
  %17 = load ptr, ptr %16, align 8
  %18 = icmp ne ptr %17, null
  br i1 %18, label %19, label %23

19:                                               ; preds = %15
  %20 = getelementptr inbounds %class.JfrStackTraceMark, ptr %3, i32 0, i32 0
  %21 = load ptr, ptr %20, align 8
  %22 = call noundef ptr @_ZNK6Thread16jfr_thread_localEv(ptr noundef nonnull align 8 dereferenceable(888) %21)
  call void @_ZN14JfrThreadLocal24clear_cached_stack_traceEv(ptr noundef nonnull align 8 dereferenceable(195) %22)
  br label %23

23:                                               ; preds = %19, %15
  br label %24

24:                                               ; preds = %23, %7
  ret void
}