; Function Attrs: mustprogress nofree norecurse nosync nounwind willreturn memory(write, argmem: readwrite, inaccessiblemem: none) uwtable
define hidden void @_ZN17JfrStackTraceMarkD2Ev(ptr nocapture noundef nonnull readonly align 8 dereferenceable(24) %0) unnamed_addr #2 align 2 {
  %2 = getelementptr inbounds i8, ptr %0, i64 8
  %3 = load i64, ptr %2, align 8
  %.not = icmp eq i64 %3, 0
  %4 = load ptr, ptr %0, align 8
  br i1 %.not, label %8, label %5

5:                                                ; preds = %1
  %6 = getelementptr inbounds i8, ptr %0, i64 16
  %7 = load i64, ptr %6, align 8
  br label %.sink.split

8:                                                ; preds = %1
  %.not1 = icmp eq ptr %4, null
  br i1 %.not1, label %11, label %.sink.split

.sink.split:                                      ; preds = %8, %5
  %.sink3 = phi i64 [ %3, %5 ], [ -1, %8 ]
  %.sink = phi i64 [ %7, %5 ], [ 0, %8 ]
  %9 = getelementptr inbounds i8, ptr %4, i64 704
  store i64 %.sink3, ptr %9, align 8
  %10 = getelementptr inbounds i8, ptr %4, i64 712
  store i64 %.sink, ptr %10, align 8
  br label %11

11:                                               ; preds = %.sink.split, %8
  ret void
}